; Function Attrs: mustprogress uwtable
define void @_ZN7rocksdb31AutoThreadOperationStageUpdaterC2ENS_12ThreadStatus14OperationStageE(ptr noundef nonnull writeonly align 4 captures(none) dereferenceable(4) initializes((0, 4)) %0, i32 noundef %1) unnamed_addr #3 align 2 {
  %3 = tail call align 8 ptr @llvm.threadlocal.address.p0(ptr align 8 @_ZN7rocksdb16ThreadStatusUtil27thread_updater_local_cache_E)
  %4 = load ptr, ptr %3, align 8, !tbaa !18
  %5 = icmp eq ptr %4, null
  br i1 %5, label %_ZN7rocksdb16ThreadStatusUtil23SetThreadOperationStageENS_12ThreadStatus14OperationStageE.exit, label %6

6:                                                ; preds = %2
  %7 = tail call noundef i32 @_ZN7rocksdb19ThreadStatusUpdater23SetThreadOperationStageENS_12ThreadStatus14OperationStageE(ptr noundef nonnull align 8 dereferenceable(216) %4, i32 noundef %1)
  br label %_ZN7rocksdb16ThreadStatusUtil23SetThreadOperationStageENS_12ThreadStatus14OperationStageE.exit

_ZN7rocksdb16ThreadStatusUtil23SetThreadOperationStageENS_12ThreadStatus14OperationStageE.exit: ; preds = %2, %6
  %.0.i = phi i32 [ %7, %6 ], [ 0, %2 ]
  store i32 %.0.i, ptr %0, align 4, !tbaa !27
  ret void
}